target datalayout = "e-m:e-p270:32:32-p271:32:32-p272:64:64-i64:64-i128:128-f80:128-n8:16:32:64-S128"
target triple = "x86_64-unknown-linux-gnu"

; Function Attrs: mustprogress nounwind uwtable
define dso_local noundef i32 @_Z12LUPDecomposePPdidPi(ptr noundef %A, i32 noundef %N, double noundef %Tol, ptr noundef %P) #4 {
entry:
  %retval = alloca i32, align 4
  %A.addr = alloca ptr, align 8
  %N.addr = alloca i32, align 4
  %Tol.addr = alloca double, align 8
  %P.addr = alloca ptr, align 8
  %i = alloca i32, align 4
  %j = alloca i32, align 4
  %k = alloca i32, align 4
  %imax = alloca i32, align 4
  %maxA = alloca double, align 8
  %ptr = alloca ptr, align 8
  %absA = alloca double, align 8
  store ptr %A, ptr %A.addr, align 8
  store i32 %N, ptr %N.addr, align 4
  store double %Tol, ptr %Tol.addr, align 8
  store ptr %P, ptr %P.addr, align 8
  store i32 0, ptr %i, align 4
  br label %for.cond

for.cond:                                         ; preds = %for.inc, %entry
  %0 = load i32, ptr %i, align 4
  %1 = load i32, ptr %N.addr, align 4
  %cmp = icmp sle i32 %0, %1
  br i1 %cmp, label %for.body, label %for.end

for.body:                                         ; preds = %for.cond
  %2 = load i32, ptr %i, align 4
  %3 = load ptr, ptr %P.addr, align 8
  %4 = load i32, ptr %i, align 4
  %idxprom = sext i32 %4 to i64
  %arrayidx = getelementptr inbounds i32, ptr %3, i64 %idxprom
  store i32 %2, ptr %arrayidx, align 4
  br label %for.inc

for.inc:                                          ; preds = %for.body
  %5 = load i32, ptr %i, align 4
  %inc = add nsw i32 %5, 1
  store i32 %inc, ptr %i, align 4
  br label %for.cond, !llvm.loop !5

for.end:                                          ; preds = %for.cond
  store i32 0, ptr %i, align 4
  br label %for.cond1

for.cond1:                                        ; preds = %for.inc73, %for.end
  %6 = load i32, ptr %i, align 4
  %7 = load i32, ptr %N.addr, align 4
  %cmp2 = icmp slt i32 %6, %7
  br i1 %cmp2, label %for.body3, label %for.end75

for.body3:                                        ; preds = %for.cond1
  store double 0.000000e+00, ptr %maxA, align 8
  %8 = load i32, ptr %i, align 4
  store i32 %8, ptr %imax, align 4
  %9 = load i32, ptr %i, align 4
  store i32 %9, ptr %k, align 4
  br label %for.cond4

for.cond4:                                        ; preds = %for.inc12, %for.body3
  %10 = load i32, ptr %k, align 4
  %11 = load i32, ptr %N.addr, align 4
  %cmp5 = icmp slt i32 %10, %11
  br i1 %cmp5, label %for.body6, label %for.end14

for.body6:                                        ; preds = %for.cond4
  %12 = load ptr, ptr %A.addr, align 8
  %13 = load i32, ptr %k, align 4
  %idxprom7 = sext i32 %13 to i64
  %arrayidx8 = getelementptr inbounds ptr, ptr %12, i64 %idxprom7
  %14 = load ptr, ptr %arrayidx8, align 8
  %15 = load i32, ptr %i, align 4
  %idxprom9 = sext i32 %15 to i64
  %arrayidx10 = getelementptr inbounds double, ptr %14, i64 %idxprom9
  %16 = load double, ptr %arrayidx10, align 8
  %17 = call double @llvm.fabs.f64(double %16)
  store double %17, ptr %absA, align 8
  %18 = load double, ptr %maxA, align 8
  %cmp11 = fcmp ogt double %17, %18
  br i1 %cmp11, label %if.then, label %if.end

if.then:                                          ; preds = %for.body6
  %19 = load double, ptr %absA, align 8
  store double %19, ptr %maxA, align 8
  %20 = load i32, ptr %k, align 4
  store i32 %20, ptr %imax, align 4
  br label %if.end

if.end:                                           ; preds = %if.then, %for.body6
  br label %for.inc12

for.inc12:                                        ; preds = %if.end
  %21 = load i32, ptr %k, align 4
  %inc13 = add nsw i32 %21, 1
  store i32 %inc13, ptr %k, align 4
  br label %for.cond4, !llvm.loop !7

for.end14:                                        ; preds = %for.cond4
  %22 = load double, ptr %maxA, align 8
  %23 = load double, ptr %Tol.addr, align 8
  %cmp15 = fcmp olt double %22, %23
  br i1 %cmp15, label %if.then16, label %if.end17

if.then16:                                        ; preds = %for.end14
  store i32 0, ptr %retval, align 4
  br label %return

if.end17:                                         ; preds = %for.end14
  %24 = load i32, ptr %imax, align 4
  %25 = load i32, ptr %i, align 4
  %cmp18 = icmp ne i32 %24, %25
  br i1 %cmp18, label %if.then19, label %if.end39

if.then19:                                        ; preds = %if.end17
  %26 = load ptr, ptr %P.addr, align 8
  %27 = load i32, ptr %i, align 4
  %idxprom20 = sext i32 %27 to i64
  %arrayidx21 = getelementptr inbounds i32, ptr %26, i64 %idxprom20
  %28 = load i32, ptr %arrayidx21, align 4
  store i32 %28, ptr %j, align 4
  %29 = load ptr, ptr %P.addr, align 8
  %30 = load i32, ptr %imax, align 4
  %idxprom22 = sext i32 %30 to i64
  %arrayidx23 = getelementptr inbounds i32, ptr %29, i64 %idxprom22
  %31 = load i32, ptr %arrayidx23, align 4
  %32 = load ptr, ptr %P.addr, align 8
  %33 = load i32, ptr %i, align 4
  %idxprom24 = sext i32 %33 to i64
  %arrayidx25 = getelementptr inbounds i32, ptr %32, i64 %idxprom24
  store i32 %31, ptr %arrayidx25, align 4
  %34 = load i32, ptr %j, align 4
  %35 = load ptr, ptr %P.addr, align 8
  %36 = load i32, ptr %imax, align 4
  %idxprom26 = sext i32 %36 to i64
  %arrayidx27 = getelementptr inbounds i32, ptr %35, i64 %idxprom26
  store i32 %34, ptr %arrayidx27, align 4
  %37 = load ptr, ptr %A.addr, align 8
  %38 = load i32, ptr %i, align 4
  %idxprom28 = sext i32 %38 to i64
  %arrayidx29 = getelementptr inbounds ptr, ptr %37, i64 %idxprom28
  %39 = load ptr, ptr %arrayidx29, align 8
  store ptr %39, ptr %ptr, align 8
  %40 = load ptr, ptr %A.addr, align 8
  %41 = load i32, ptr %imax, align 4
  %idxprom30 = sext i32 %41 to i64
  %arrayidx31 = getelementptr inbounds ptr, ptr %40, i64 %idxprom30
  %42 = load ptr, ptr %arrayidx31, align 8
  %43 = load ptr, ptr %A.addr, align 8
  %44 = load i32, ptr %i, align 4
  %idxprom32 = sext i32 %44 to i64
  %arrayidx33 = getelementptr inbounds ptr, ptr %43, i64 %idxprom32
  store ptr %42, ptr %arrayidx33, align 8
  %45 = load ptr, ptr %ptr, align 8
  %46 = load ptr, ptr %A.addr, align 8
  %47 = load i32, ptr %imax, align 4
  %idxprom34 = sext i32 %47 to i64
  %arrayidx35 = getelementptr inbounds ptr, ptr %46, i64 %idxprom34
  store ptr %45, ptr %arrayidx35, align 8
  %48 = load ptr, ptr %P.addr, align 8
  %49 = load i32, ptr %N.addr, align 4
  %idxprom36 = sext i32 %49 to i64
  %arrayidx37 = getelementptr inbounds i32, ptr %48, i64 %idxprom36
  %50 = load i32, ptr %arrayidx37, align 4
  %inc38 = add nsw i32 %50, 1
  store i32 %inc38, ptr %arrayidx37, align 4
  br label %if.end39

if.end39:                                         ; preds = %if.then19, %if.end17
  %51 = load i32, ptr %i, align 4
  %add = add nsw i32 %51, 1
  store i32 %add, ptr %j, align 4
  br label %for.cond40

for.cond40:                                       ; preds = %for.inc70, %if.end39
  %52 = load i32, ptr %j, align 4
  %53 = load i32, ptr %N.addr, align 4
  %cmp41 = icmp slt i32 %52, %53
  br i1 %cmp41, label %for.body42, label %for.end72

for.body42:                                       ; preds = %for.cond40
  %54 = load ptr, ptr %A.addr, align 8
  %55 = load i32, ptr %i, align 4
  %idxprom43 = sext i32 %55 to i64
  %arrayidx44 = getelementptr inbounds ptr, ptr %54, i64 %idxprom43
  %56 = load ptr, ptr %arrayidx44, align 8
  %57 = load i32, ptr %i, align 4
  %idxprom45 = sext i32 %57 to i64
  %arrayidx46 = getelementptr inbounds double, ptr %56, i64 %idxprom45
  %58 = load double, ptr %arrayidx46, align 8
  %59 = load ptr, ptr %A.addr, align 8
  %60 = load i32, ptr %j, align 4
  %idxprom47 = sext i32 %60 to i64
  %arrayidx48 = getelementptr inbounds ptr, ptr %59, i64 %idxprom47
  %61 = load ptr, ptr %arrayidx48, align 8
  %62 = load i32, ptr %i, align 4
  %idxprom49 = sext i32 %62 to i64
  %arrayidx50 = getelementptr inbounds double, ptr %61, i64 %idxprom49
  %63 = load double, ptr %arrayidx50, align 8
  %div = fdiv double %63, %58
  store double %div, ptr %arrayidx50, align 8
  %64 = load i32, ptr %i, align 4
  %add51 = add nsw i32 %64, 1
  store i32 %add51, ptr %k, align 4
  br label %for.cond52

for.cond52:                                       ; preds = %for.inc67, %for.body42
  %65 = load i32, ptr %k, align 4
  %66 = load i32, ptr %N.addr, align 4
  %cmp53 = icmp slt i32 %65, %66
  br i1 %cmp53, label %for.body54, label %for.end69

for.body54:                                       ; preds = %for.cond52
  %67 = load ptr, ptr %A.addr, align 8
  %68 = load i32, ptr %j, align 4
  %idxprom55 = sext i32 %68 to i64
  %arrayidx56 = getelementptr inbounds ptr, ptr %67, i64 %idxprom55
  %69 = load ptr, ptr %arrayidx56, align 8
  %70 = load i32, ptr %i, align 4
  %idxprom57 = sext i32 %70 to i64
  %arrayidx58 = getelementptr inbounds double, ptr %69, i64 %idxprom57
  %71 = load double, ptr %arrayidx58, align 8
  %72 = load ptr, ptr %A.addr, align 8
  %73 = load i32, ptr %i, align 4
  %idxprom59 = sext i32 %73 to i64
  %arrayidx60 = getelementptr inbounds ptr, ptr %72, i64 %idxprom59
  %74 = load ptr, ptr %arrayidx60, align 8
  %75 = load i32, ptr %k, align 4
  %idxprom61 = sext i32 %75 to i64
  %arrayidx62 = getelementptr inbounds double, ptr %74, i64 %idxprom61
  %76 = load double, ptr %arrayidx62, align 8
  %mul = fmul double %71, %76
  %77 = load ptr, ptr %A.addr, align 8
  %78 = load i32, ptr %j, align 4
  %idxprom63 = sext i32 %78 to i64
  %arrayidx64 = getelementptr inbounds ptr, ptr %77, i64 %idxprom63
  %79 = load ptr, ptr %arrayidx64, align 8
  %80 = load i32, ptr %k, align 4
  %idxprom65 = sext i32 %80 to i64
  %arrayidx66 = getelementptr inbounds double, ptr %79, i64 %idxprom65
  %81 = load double, ptr %arrayidx66, align 8
  %sub = fsub double %81, %mul
  store double %sub, ptr %arrayidx66, align 8
  br label %for.inc67

for.inc67:                                        ; preds = %for.body54
  %82 = load i32, ptr %k, align 4
  %inc68 = add nsw i32 %82, 1
  store i32 %inc68, ptr %k, align 4
  br label %for.cond52, !llvm.loop !8

for.end69:                                        ; preds = %for.cond52
  br label %for.inc70

for.inc70:                                        ; preds = %for.end69
  %83 = load i32, ptr %j, align 4
  %inc71 = add nsw i32 %83, 1
  store i32 %inc71, ptr %j, align 4
  br label %for.cond40, !llvm.loop !9

for.end72:                                        ; preds = %for.cond40
  br label %for.inc73

for.inc73:                                        ; preds = %for.end72
  %84 = load i32, ptr %i, align 4
  %inc74 = add nsw i32 %84, 1
  store i32 %inc74, ptr %i, align 4
  br label %for.cond1, !llvm.loop !10

for.end75:                                        ; preds = %for.cond1
  store i32 1, ptr %retval, align 4
  br label %return

return:                                           ; preds = %for.end75, %if.then16
  %85 = load i32, ptr %retval, align 4
  ret i32 %85
}