; Function Attrs: mustprogress nofree norecurse nosync nounwind memory(readwrite, inaccessiblemem: none) uwtable
define dso_local noundef i32 @_Z12LUPDecomposePPdidPi(ptr nocapture noundef %A, i32 noundef %N, double noundef %Tol, ptr nocapture noundef %P) local_unnamed_addr #4 {
entry:
  %cmp.not57 = icmp slt i32 %N, 0
  br i1 %cmp.not57, label %return, label %for.body.preheader

for.body.preheader:                               ; preds = %entry
  %0 = add nuw i32 %N, 1
  %wide.trip.count = zext i32 %0 to i64
  br label %for.body

for.cond1.preheader:                              ; preds = %for.body
  %cmp266.not = icmp eq i32 %N, 0
  br i1 %cmp266.not, label %return, label %for.cond4.preheader.lr.ph

for.cond4.preheader.lr.ph:                        ; preds = %for.cond1.preheader
  %idxprom36 = zext nneg i32 %N to i64
  %arrayidx37 = getelementptr inbounds i32, ptr %P, i64 %idxprom36
  %1 = zext nneg i32 %N to i64
  br label %for.cond4.preheader

for.body:                                         ; preds = %for.body.preheader, %for.body
  %indvars.iv = phi i64 [ 0, %for.body.preheader ], [ %indvars.iv.next, %for.body ]
  %arrayidx = getelementptr inbounds i32, ptr %P, i64 %indvars.iv
  %2 = trunc i64 %indvars.iv to i32
  store i32 %2, ptr %arrayidx, align 4
  %indvars.iv.next = add nuw nsw i64 %indvars.iv, 1
  %exitcond.not = icmp eq i64 %indvars.iv.next, %wide.trip.count
  br i1 %exitcond.not, label %for.cond1.preheader, label %for.body, !llvm.loop !5

for.cond1.loopexit:                               ; preds = %for.cond52.for.inc70_crit_edge.us, %if.end39
  %indvars.iv.next78 = add nuw nsw i64 %indvars.iv77, 1
  %exitcond91.not = icmp eq i64 %indvars.iv.next71, %idxprom36
  br i1 %exitcond91.not, label %return, label %for.cond4.preheader, !llvm.loop !7

for.cond4.preheader:                              ; preds = %for.cond4.preheader.lr.ph, %for.cond1.loopexit
  %indvars.iv77 = phi i64 [ 1, %for.cond4.preheader.lr.ph ], [ %indvars.iv.next78, %for.cond1.loopexit ]
  %indvars.iv70 = phi i64 [ 0, %for.cond4.preheader.lr.ph ], [ %indvars.iv.next71, %for.cond1.loopexit ]
  %3 = trunc i64 %indvars.iv70 to i32
  br label %for.body6

for.body6:                                        ; preds = %for.cond4.preheader, %for.body6
  %indvars.iv72 = phi i64 [ %indvars.iv70, %for.cond4.preheader ], [ %indvars.iv.next73, %for.body6 ]
  %maxA.061 = phi double [ 0.000000e+00, %for.cond4.preheader ], [ %maxA.1, %for.body6 ]
  %imax.060 = phi i32 [ %3, %for.cond4.preheader ], [ %imax.1, %for.body6 ]
  %arrayidx8 = getelementptr inbounds ptr, ptr %A, i64 %indvars.iv72
  %4 = load ptr, ptr %arrayidx8, align 8
  %arrayidx10 = getelementptr inbounds double, ptr %4, i64 %indvars.iv70
  %5 = load double, ptr %arrayidx10, align 8
  %6 = tail call double @llvm.fabs.f64(double %5)
  %cmp11 = fcmp ogt double %6, %maxA.061
  %7 = trunc i64 %indvars.iv72 to i32
  %imax.1 = select i1 %cmp11, i32 %7, i32 %imax.060
  %maxA.1 = select i1 %cmp11, double %6, double %maxA.061
  %indvars.iv.next73 = add nuw nsw i64 %indvars.iv72, 1
  %exitcond76.not = icmp eq i64 %indvars.iv.next73, %idxprom36
  br i1 %exitcond76.not, label %for.end14, label %for.body6, !llvm.loop !8

for.end14:                                        ; preds = %for.body6
  %cmp15 = fcmp olt double %maxA.1, %Tol
  br i1 %cmp15, label %return, label %if.end17

if.end17:                                         ; preds = %for.end14
  %8 = zext i32 %imax.1 to i64
  %cmp18.not = icmp eq i64 %indvars.iv70, %8
  br i1 %cmp18.not, label %if.end39, label %if.then19

if.then19:                                        ; preds = %if.end17
  %arrayidx21 = getelementptr inbounds i32, ptr %P, i64 %indvars.iv70
  %9 = load i32, ptr %arrayidx21, align 4
  %idxprom22 = sext i32 %imax.1 to i64
  %arrayidx23 = getelementptr inbounds i32, ptr %P, i64 %idxprom22
  %10 = load i32, ptr %arrayidx23, align 4
  store i32 %10, ptr %arrayidx21, align 4
  store i32 %9, ptr %arrayidx23, align 4
  %arrayidx29 = getelementptr inbounds ptr, ptr %A, i64 %indvars.iv70
  %11 = load ptr, ptr %arrayidx29, align 8
  %arrayidx31 = getelementptr inbounds ptr, ptr %A, i64 %idxprom22
  %12 = load ptr, ptr %arrayidx31, align 8
  store ptr %12, ptr %arrayidx29, align 8
  store ptr %11, ptr %arrayidx31, align 8
  %13 = load i32, ptr %arrayidx37, align 4
  %inc38 = add nsw i32 %13, 1
  store i32 %inc38, ptr %arrayidx37, align 4
  br label %if.end39

if.end39:                                         ; preds = %if.then19, %if.end17
  %indvars.iv.next71 = add nuw nsw i64 %indvars.iv70, 1
  %cmp4164 = icmp ult i64 %indvars.iv.next71, %1
  br i1 %cmp4164, label %for.body42.lr.ph, label %for.cond1.loopexit

for.body42.lr.ph:                                 ; preds = %if.end39
  %arrayidx44 = getelementptr inbounds ptr, ptr %A, i64 %indvars.iv70
  br label %for.body42.us

for.body42.us:                                    ; preds = %for.cond52.for.inc70_crit_edge.us, %for.body42.lr.ph
  %indvars.iv84 = phi i64 [ %indvars.iv.next85, %for.cond52.for.inc70_crit_edge.us ], [ %indvars.iv77, %for.body42.lr.ph ]
  %14 = load ptr, ptr %arrayidx44, align 8
  %arrayidx46.us = getelementptr inbounds double, ptr %14, i64 %indvars.iv70
  %15 = load double, ptr %arrayidx46.us, align 8
  %arrayidx48.us = getelementptr inbounds ptr, ptr %A, i64 %indvars.iv84
  %16 = load ptr, ptr %arrayidx48.us, align 8
  %arrayidx50.us = getelementptr inbounds double, ptr %16, i64 %indvars.iv70
  %17 = load double, ptr %arrayidx50.us, align 8
  %div.us = fdiv double %17, %15
  store double %div.us, ptr %arrayidx50.us, align 8
  br label %for.body54.us

for.body54.us:                                    ; preds = %for.body42.us, %for.body54.us
  %indvars.iv79 = phi i64 [ %indvars.iv77, %for.body42.us ], [ %indvars.iv.next80, %for.body54.us ]
  %18 = load ptr, ptr %arrayidx48.us, align 8
  %arrayidx58.us = getelementptr inbounds double, ptr %18, i64 %indvars.iv70
  %19 = load double, ptr %arrayidx58.us, align 8
  %20 = load ptr, ptr %arrayidx44, align 8
  %arrayidx62.us = getelementptr inbounds double, ptr %20, i64 %indvars.iv79
  %21 = load double, ptr %arrayidx62.us, align 8
  %mul.us = fmul double %19, %21
  %arrayidx66.us = getelementptr inbounds double, ptr %18, i64 %indvars.iv79
  %22 = load double, ptr %arrayidx66.us, align 8
  %sub.us = fsub double %22, %mul.us
  store double %sub.us, ptr %arrayidx66.us, align 8
  %indvars.iv.next80 = add nuw nsw i64 %indvars.iv79, 1
  %exitcond83.not = icmp eq i64 %indvars.iv.next80, %idxprom36
  br i1 %exitcond83.not, label %for.cond52.for.inc70_crit_edge.us, label %for.body54.us, !llvm.loop !9

for.cond52.for.inc70_crit_edge.us:                ; preds = %for.body54.us
  %indvars.iv.next85 = add nuw nsw i64 %indvars.iv84, 1
  %exitcond88.not = icmp eq i64 %indvars.iv.next85, %idxprom36
  br i1 %exitcond88.not, label %for.cond1.loopexit, label %for.body42.us, !llvm.loop !10

return:                                           ; preds = %for.end14, %for.cond1.loopexit, %entry, %for.cond1.preheader
  %retval.0 = phi i32 [ 1, %for.cond1.preheader ], [ 1, %entry ], [ 1, %for.cond1.loopexit ], [ 0, %for.end14 ]
  ret i32 %retval.0
}